target datalayout = "e-m:e-p270:32:32-p271:32:32-p272:64:64-i64:64-i128:128-f80:128-n8:16:32:64-S128"
target triple = "x86_64-pc-linux-gnu"

%struct.AVChannelLayout = type { i32, i32, %union.anon, ptr }
%union.anon = type { i64 }
%struct.AVRational = type { i32, i32 }
%struct.AVFrame = type { [8 x ptr], [8 x i32], ptr, i32, i32, i32, i32, i32, %struct.AVRational, i64, i64, %struct.AVRational, i32, ptr, i32, i32, [8 x ptr], ptr, i32, ptr, i32, i32, i32, i32, i32, i32, i32, i64, ptr, i32, ptr, ptr, i64, i64, i64, i64, ptr, %struct.AVChannelLayout, i64 }

; Function Attrs: inlinehint nounwind uwtable
define internal void @av_image_copy2(ptr noundef %0, ptr noundef %1, ptr noundef %2, ptr noundef %3, i32 noundef %4, i32 noundef %5, i32 noundef %6) #4 {
  %8 = alloca ptr, align 8
  %9 = alloca ptr, align 8
  %10 = alloca ptr, align 8
  %11 = alloca ptr, align 8
  %12 = alloca i32, align 4
  %13 = alloca i32, align 4
  %14 = alloca i32, align 4
  store ptr %0, ptr %8, align 8, !tbaa !82
  store ptr %1, ptr %9, align 8, !tbaa !83
  store ptr %2, ptr %10, align 8, !tbaa !82
  store ptr %3, ptr %11, align 8, !tbaa !83
  store i32 %4, ptr %12, align 4, !tbaa !62
  store i32 %5, ptr %13, align 4, !tbaa !62
  store i32 %6, ptr %14, align 4, !tbaa !62
  %15 = load ptr, ptr %8, align 8, !tbaa !82
  %16 = load ptr, ptr %9, align 8, !tbaa !83
  %17 = load ptr, ptr %10, align 8, !tbaa !82
  %18 = load ptr, ptr %11, align 8, !tbaa !83
  %19 = load i32, ptr %12, align 4, !tbaa !62
  %20 = load i32, ptr %13, align 4, !tbaa !62
  %21 = load i32, ptr %14, align 4, !tbaa !62
  call void @av_image_copy(ptr noundef %15, ptr noundef %16, ptr noundef %17, ptr noundef %18, i32 noundef %19, i32 noundef %20, i32 noundef %21)
  ret void
}

; Function Attrs: nounwind uwtable
define internal void @fixstride(ptr noundef %0, ptr noundef %1) #0 {
  %3 = alloca ptr, align 8
  %4 = alloca ptr, align 8
  %5 = alloca ptr, align 8
  %6 = alloca i32, align 4
  store ptr %0, ptr %3, align 8, !tbaa !4
  store ptr %1, ptr %4, align 8, !tbaa !9
  call void @llvm.lifetime.start.p0(i64 8, ptr %5) #7
  %7 = load ptr, ptr %3, align 8, !tbaa !4
  %8 = load ptr, ptr %4, align 8, !tbaa !9
  %9 = getelementptr inbounds nuw %struct.AVFrame, ptr %8, i32 0, i32 3
  %10 = load i32, ptr %9, align 8, !tbaa !71
  %11 = load ptr, ptr %4, align 8, !tbaa !9
  %12 = getelementptr inbounds nuw %struct.AVFrame, ptr %11, i32 0, i32 4
  %13 = load i32, ptr %12, align 4, !tbaa !72
  %14 = call ptr @ff_default_get_video_buffer(ptr noundef %7, i32 noundef %10, i32 noundef %13)
  store ptr %14, ptr %5, align 8, !tbaa !9
  %15 = load ptr, ptr %5, align 8, !tbaa !9
  %16 = icmp ne ptr %15, null
  br i1 %16, label %18, label %17

17:                                               ; preds = %2
  store i32 1, ptr %6, align 4
  br label %46

18:                                               ; preds = %2
  %19 = load ptr, ptr %5, align 8, !tbaa !9
  %20 = load ptr, ptr %4, align 8, !tbaa !9
  %21 = call i32 @av_frame_copy_props(ptr noundef %19, ptr noundef %20)
  %22 = load ptr, ptr %5, align 8, !tbaa !9
  %23 = getelementptr inbounds nuw %struct.AVFrame, ptr %22, i32 0, i32 0
  %24 = getelementptr inbounds [8 x ptr], ptr %23, i64 0, i64 0
  %25 = load ptr, ptr %5, align 8, !tbaa !9
  %26 = getelementptr inbounds nuw %struct.AVFrame, ptr %25, i32 0, i32 1
  %27 = getelementptr inbounds [8 x i32], ptr %26, i64 0, i64 0
  %28 = load ptr, ptr %4, align 8, !tbaa !9
  %29 = getelementptr inbounds nuw %struct.AVFrame, ptr %28, i32 0, i32 0
  %30 = getelementptr inbounds [8 x ptr], ptr %29, i64 0, i64 0
  %31 = load ptr, ptr %4, align 8, !tbaa !9
  %32 = getelementptr inbounds nuw %struct.AVFrame, ptr %31, i32 0, i32 1
  %33 = getelementptr inbounds [8 x i32], ptr %32, i64 0, i64 0
  %34 = load ptr, ptr %5, align 8, !tbaa !9
  %35 = getelementptr inbounds nuw %struct.AVFrame, ptr %34, i32 0, i32 6
  %36 = load i32, ptr %35, align 4, !tbaa !73
  %37 = load ptr, ptr %5, align 8, !tbaa !9
  %38 = getelementptr inbounds nuw %struct.AVFrame, ptr %37, i32 0, i32 3
  %39 = load i32, ptr %38, align 8, !tbaa !71
  %40 = load ptr, ptr %5, align 8, !tbaa !9
  %41 = getelementptr inbounds nuw %struct.AVFrame, ptr %40, i32 0, i32 4
  %42 = load i32, ptr %41, align 4, !tbaa !72
  call void @av_image_copy2(ptr noundef %24, ptr noundef %27, ptr noundef %30, ptr noundef %33, i32 noundef %36, i32 noundef %39, i32 noundef %42)
  %43 = load ptr, ptr %4, align 8, !tbaa !9
  call void @av_frame_unref(ptr noundef %43)
  %44 = load ptr, ptr %4, align 8, !tbaa !9
  %45 = load ptr, ptr %5, align 8, !tbaa !9
  call void @av_frame_move_ref(ptr noundef %44, ptr noundef %45)
  call void @av_frame_free(ptr noundef %5)
  store i32 0, ptr %6, align 4
  br label %46

46:                                               ; preds = %18, %17
  call void @llvm.lifetime.end.p0(i64 8, ptr %5) #7
  %47 = load i32, ptr %6, align 4
  switch i32 %47, label %49 [
    i32 0, label %48
    i32 1, label %48
  ]

48:                                               ; preds = %46, %46
  ret void

49:                                               ; preds = %46
  unreachable
}