; Function Attrs: nounwind uwtable
define internal fastcc void @fixstride(ptr noundef %0, ptr noundef %1) unnamed_addr #0 {
  %3 = alloca ptr, align 8
  call void @llvm.lifetime.start.p0(i64 8, ptr nonnull %3) #5
  %4 = getelementptr inbounds nuw i8, ptr %1, i64 104
  %5 = load i32, ptr %4, align 8, !tbaa !66
  %6 = getelementptr inbounds nuw i8, ptr %1, i64 108
  %7 = load i32, ptr %6, align 4, !tbaa !67
  %8 = tail call ptr @ff_default_get_video_buffer(ptr noundef %0, i32 noundef %5, i32 noundef %7) #5
  store ptr %8, ptr %3, align 8, !tbaa !68
  %.not = icmp eq ptr %8, null
  br i1 %.not, label %19, label %9

9:                                                ; preds = %2
  %10 = tail call i32 @av_frame_copy_props(ptr noundef nonnull %8, ptr noundef nonnull %1) #5
  %11 = getelementptr inbounds nuw i8, ptr %8, i64 64
  %12 = getelementptr inbounds nuw i8, ptr %1, i64 64
  %13 = getelementptr inbounds nuw i8, ptr %8, i64 116
  %14 = load i32, ptr %13, align 4, !tbaa !69
  %15 = getelementptr inbounds nuw i8, ptr %8, i64 104
  %16 = load i32, ptr %15, align 8, !tbaa !66
  %17 = getelementptr inbounds nuw i8, ptr %8, i64 108
  %18 = load i32, ptr %17, align 4, !tbaa !67
  tail call void @av_image_copy(ptr noundef nonnull %8, ptr noundef nonnull %11, ptr noundef nonnull %1, ptr noundef nonnull %12, i32 noundef %14, i32 noundef %16, i32 noundef %18) #5
  tail call void @av_frame_unref(ptr noundef nonnull %1) #5
  tail call void @av_frame_move_ref(ptr noundef nonnull %1, ptr noundef nonnull %8) #5
  call void @av_frame_free(ptr noundef nonnull %3) #5
  br label %19

19:                                               ; preds = %2, %9
  call void @llvm.lifetime.end.p0(i64 8, ptr nonnull %3) #5
  ret void
}